target datalayout = "e-m:e-p270:32:32-p271:32:32-p272:64:64-i64:64-i128:128-f80:128-n8:16:32:64-S128"
target triple = "x86_64-pc-linux-gnu"

%struct.AVProbeData = type { ptr, ptr, i32, ptr }

; Function Attrs: nounwind uwtable
define internal i32 @probe(ptr noundef %0) #0 {
  %2 = alloca i32, align 4
  %3 = alloca ptr, align 8
  store ptr %0, ptr %3, align 8, !tbaa !4
  %4 = load ptr, ptr %3, align 8, !tbaa !4
  %5 = getelementptr inbounds nuw %struct.AVProbeData, ptr %4, i32 0, i32 2
  %6 = load i32, ptr %5, align 8, !tbaa !9
  %7 = icmp slt i32 %6, 2096
  br i1 %7, label %8, label %9

8:                                                ; preds = %1
  store i32 0, ptr %2, align 4
  br label %66

9:                                                ; preds = %1
  %10 = load ptr, ptr %3, align 8, !tbaa !4
  %11 = getelementptr inbounds nuw %struct.AVProbeData, ptr %10, i32 0, i32 1
  %12 = load ptr, ptr %11, align 8, !tbaa !13
  %13 = load i32, ptr %12, align 1, !tbaa !14
  %14 = icmp ne i32 %13, 1
  br i1 %14, label %64, label %15

15:                                               ; preds = %9
  %16 = load ptr, ptr %3, align 8, !tbaa !4
  %17 = getelementptr inbounds nuw %struct.AVProbeData, ptr %16, i32 0, i32 1
  %18 = load ptr, ptr %17, align 8, !tbaa !13
  %19 = getelementptr inbounds i8, ptr %18, i64 8
  %20 = load i32, ptr %19, align 1, !tbaa !14
  %21 = icmp ugt i32 %20, 100000
  br i1 %21, label %64, label %22

22:                                               ; preds = %15
  %23 = load ptr, ptr %3, align 8, !tbaa !4
  %24 = getelementptr inbounds nuw %struct.AVProbeData, ptr %23, i32 0, i32 1
  %25 = load ptr, ptr %24, align 8, !tbaa !13
  %26 = getelementptr inbounds i8, ptr %25, i64 12
  %27 = load i32, ptr %26, align 1, !tbaa !14
  %28 = icmp ugt i32 %27, 8
  br i1 %28, label %64, label %29

29:                                               ; preds = %22
  %30 = load ptr, ptr %3, align 8, !tbaa !4
  %31 = getelementptr inbounds nuw %struct.AVProbeData, ptr %30, i32 0, i32 1
  %32 = load ptr, ptr %31, align 8, !tbaa !13
  %33 = getelementptr inbounds i8, ptr %32, i64 16
  %34 = load i32, ptr %33, align 1, !tbaa !14
  %35 = icmp ne i32 %34, 2096
  br i1 %35, label %64, label %36

36:                                               ; preds = %29
  %37 = load ptr, ptr %3, align 8, !tbaa !4
  %38 = getelementptr inbounds nuw %struct.AVProbeData, ptr %37, i32 0, i32 1
  %39 = load ptr, ptr %38, align 8, !tbaa !13
  %40 = getelementptr inbounds i8, ptr %39, i64 21
  %41 = load i32, ptr %40, align 1, !tbaa !14
  %42 = icmp ne i32 %41, 0
  br i1 %42, label %43, label %64

43:                                               ; preds = %36
  %44 = load ptr, ptr %3, align 8, !tbaa !4
  %45 = getelementptr inbounds nuw %struct.AVProbeData, ptr %44, i32 0, i32 1
  %46 = load ptr, ptr %45, align 8, !tbaa !13
  %47 = getelementptr inbounds i8, ptr %46, i64 25
  %48 = load i16, ptr %47, align 1, !tbaa !14
  %49 = zext i16 %48 to i32
  %50 = icmp ne i32 %49, 2096
  br i1 %50, label %64, label %51

51:                                               ; preds = %43
  %52 = load ptr, ptr %3, align 8, !tbaa !4
  %53 = getelementptr inbounds nuw %struct.AVProbeData, ptr %52, i32 0, i32 1
  %54 = load ptr, ptr %53, align 8, !tbaa !13
  %55 = getelementptr inbounds i8, ptr %54, i64 48
  %56 = load i32, ptr %55, align 1, !tbaa !14
  %57 = load ptr, ptr %3, align 8, !tbaa !4
  %58 = getelementptr inbounds nuw %struct.AVProbeData, ptr %57, i32 0, i32 1
  %59 = load ptr, ptr %58, align 8, !tbaa !13
  %60 = getelementptr inbounds i8, ptr %59, i64 21
  %61 = load i32, ptr %60, align 1, !tbaa !14
  %62 = urem i32 %56, %61
  %63 = icmp ne i32 %62, 0
  br i1 %63, label %64, label %65

64:                                               ; preds = %51, %43, %36, %29, %22, %15, %9
  store i32 0, ptr %2, align 4
  br label %66

65:                                               ; preds = %51
  store i32 50, ptr %2, align 4
  br label %66

66:                                               ; preds = %65, %64, %8
  %67 = load i32, ptr %2, align 4
  ret i32 %67
}