; Function Attrs: mustprogress nofree norecurse nosync nounwind willreturn memory(read, inaccessiblemem: none) uwtable
define internal range(i32 0, 51) i32 @probe(ptr noundef readonly captures(none) %0) #0 {
  %2 = getelementptr inbounds nuw i8, ptr %0, i64 16
  %3 = load i32, ptr %2, align 8, !tbaa !4
  %4 = icmp slt i32 %3, 2096
  br i1 %4, label %30, label %5

5:                                                ; preds = %1
  %6 = getelementptr inbounds nuw i8, ptr %0, i64 8
  %7 = load ptr, ptr %6, align 8, !tbaa !11
  %8 = load i32, ptr %7, align 1, !tbaa !12
  %.not = icmp eq i32 %8, 1
  br i1 %.not, label %9, label %30

9:                                                ; preds = %5
  %10 = getelementptr inbounds nuw i8, ptr %7, i64 8
  %11 = load i32, ptr %10, align 1, !tbaa !12
  %12 = icmp ugt i32 %11, 100000
  br i1 %12, label %30, label %13

13:                                               ; preds = %9
  %14 = getelementptr inbounds nuw i8, ptr %7, i64 12
  %15 = load i32, ptr %14, align 1, !tbaa !12
  %16 = icmp ugt i32 %15, 8
  br i1 %16, label %30, label %17

17:                                               ; preds = %13
  %18 = getelementptr inbounds nuw i8, ptr %7, i64 16
  %19 = load i32, ptr %18, align 1, !tbaa !12
  %.not10 = icmp eq i32 %19, 2096
  br i1 %.not10, label %20, label %30

20:                                               ; preds = %17
  %21 = getelementptr inbounds nuw i8, ptr %7, i64 21
  %22 = load i32, ptr %21, align 1, !tbaa !12
  %.not11 = icmp eq i32 %22, 0
  br i1 %.not11, label %30, label %23

23:                                               ; preds = %20
  %24 = getelementptr inbounds nuw i8, ptr %7, i64 25
  %25 = load i16, ptr %24, align 1, !tbaa !12
  %.not12 = icmp eq i16 %25, 2096
  br i1 %.not12, label %26, label %30

26:                                               ; preds = %23
  %27 = getelementptr inbounds nuw i8, ptr %7, i64 48
  %28 = load i32, ptr %27, align 1, !tbaa !12
  %29 = urem i32 %28, %22
  %.not13 = icmp eq i32 %29, 0
  %spec.select = select i1 %.not13, i32 50, i32 0
  br label %30

30:                                               ; preds = %26, %5, %9, %13, %17, %20, %23, %1
  %.0 = phi i32 [ 0, %1 ], [ 0, %23 ], [ 0, %20 ], [ 0, %17 ], [ 0, %13 ], [ 0, %9 ], [ 0, %5 ], [ %spec.select, %26 ]
  ret i32 %.0
}